	.file	"testloop.cpp"
# GNU C++14 (Debian 6.3.0-18+deb9u1) version 6.3.0 20170516 (i686-linux-gnu)
#	compiled by GNU C version 6.3.0 20170516, GMP version 6.1.2, MPFR version 3.1.5, MPC version 1.0.3, isl version 0.15
# GGC heuristics: --param ggc-min-expand=100 --param ggc-min-heapsize=131072
# options passed:  -imultiarch i386-linux-gnu -D_GNU_SOURCE testloop.cpp
# -mtune=generic -march=i686 -auxbase-strip testloop.s -g -O2 -fverbose-asm
# options enabled:  -fPIC -fPIE -faggressive-loop-optimizations
# -falign-labels -fasynchronous-unwind-tables -fauto-inc-dec
# -fbranch-count-reg -fcaller-saves -fchkp-check-incomplete-type
# -fchkp-check-read -fchkp-check-write -fchkp-instrument-calls
# -fchkp-narrow-bounds -fchkp-optimize -fchkp-store-bounds
# -fchkp-use-static-bounds -fchkp-use-static-const-bounds
# -fchkp-use-wrappers -fcombine-stack-adjustments -fcommon -fcompare-elim
# -fcprop-registers -fcrossjumping -fcse-follow-jumps -fdefer-pop
# -fdelete-null-pointer-checks -fdevirtualize -fdevirtualize-speculatively
# -fdwarf2-cfi-asm -fearly-inlining -feliminate-unused-debug-types
# -fexceptions -fexpensive-optimizations -fforward-propagate -ffunction-cse
# -fgcse -fgcse-lm -fgnu-runtime -fgnu-unique -fguess-branch-probability
# -fhoist-adjacent-loads -fident -fif-conversion -fif-conversion2
# -findirect-inlining -finline -finline-atomics
# -finline-functions-called-once -finline-small-functions -fipa-cp
# -fipa-cp-alignment -fipa-icf -fipa-icf-functions -fipa-icf-variables
# -fipa-profile -fipa-pure-const -fipa-ra -fipa-reference -fipa-sra
# -fira-hoist-pressure -fira-share-save-slots -fira-share-spill-slots
# -fisolate-erroneous-paths-dereference -fivopts -fkeep-static-consts
# -fleading-underscore -flifetime-dse -flra-remat -flto-odr-type-merging
# -fmath-errno -fmerge-constants -fmerge-debug-strings
# -fmove-loop-invariants -fomit-frame-pointer -foptimize-sibling-calls
# -foptimize-strlen -fpartial-inlining -fpcc-struct-return -fpeephole
# -fpeephole2 -fplt -fprefetch-loop-arrays -free -freorder-blocks
# -freorder-functions -frerun-cse-after-loop
# -fsched-critical-path-heuristic -fsched-dep-count-heuristic
# -fsched-group-heuristic -fsched-interblock -fsched-last-insn-heuristic
# -fsched-rank-heuristic -fsched-spec -fsched-spec-insn-heuristic
# -fsched-stalled-insns-dep -fschedule-fusion -fschedule-insns2
# -fsemantic-interposition -fshow-column -fshrink-wrap -fsigned-zeros
# -fsplit-ivs-in-unroller -fsplit-wide-types -fssa-backprop -fssa-phiopt
# -fstdarg-opt -fstrict-aliasing -fstrict-overflow
# -fstrict-volatile-bitfields -fsync-libcalls -fthread-jumps
# -ftoplevel-reorder -ftrapping-math -ftree-bit-ccp -ftree-builtin-call-dce
# -ftree-ccp -ftree-ch -ftree-coalesce-vars -ftree-copy-prop -ftree-cselim
# -ftree-dce -ftree-dominator-opts -ftree-dse -ftree-forwprop -ftree-fre
# -ftree-loop-if-convert -ftree-loop-im -ftree-loop-ivcanon
# -ftree-loop-optimize -ftree-parallelize-loops= -ftree-phiprop -ftree-pre
# -ftree-pta -ftree-reassoc -ftree-scev-cprop -ftree-sink -ftree-slsr
# -ftree-sra -ftree-switch-conversion -ftree-tail-merge -ftree-ter
# -ftree-vrp -funit-at-a-time -funwind-tables -fvar-tracking
# -fvar-tracking-assignments -fverbose-asm -fzero-initialized-in-bss -m32
# -m80387 -m96bit-long-double -malign-stringops
# -mavx256-split-unaligned-load -mavx256-split-unaligned-store
# -mfancy-math-387 -mfp-ret-in-387 -mglibc -mieee-fp -mlong-double-80
# -mno-red-zone -mno-sse4 -mpush-args -msahf -mstv -mtls-direct-seg-refs
# -mvzeroupper

	.text
.Ltext0:
	.section	.text.startup,"ax",@progbits
	.p2align 4,,15
	.globl	main
	.type	main, @function
main:
.LFB8172:
	.file 1 "testloop.cpp"
	.loc 1 5 0
	.cfi_startproc
.LVL0:
	leal	4(%esp), %ecx	#,
	.cfi_def_cfa 1, 0
	andl	$-16, %esp	#,
	pushl	-4(%ecx)	#
	pushl	%ebp	#
	.cfi_escape 0x10,0x5,0x2,0x75,0
	movl	%esp, %ebp	#,
	pushl	%ebx	#
	pushl	%ecx	#
	.cfi_escape 0xf,0x3,0x75,0x78,0x6
	.cfi_escape 0x10,0x3,0x2,0x75,0x7c
	call	__x86.get_pc_thunk.bx	#
	addl	$_GLOBAL_OFFSET_TABLE_, %ebx	# tmp87,
	.loc 1 10 0
	subl	$8, %esp	#,
	pushl	$1000	#
	pushl	_ZSt4cout@GOT(%ebx)	#
	call	_ZNSolsEi@PLT	#
.LVL1:
	addl	$16, %esp	#,
	.loc 1 12 0
	leal	-8(%ebp), %esp	#,
	xorl	%eax, %eax	#
	popl	%ecx	#
	.cfi_restore 1
	.cfi_def_cfa 1, 0
	popl	%ebx	#
	.cfi_restore 3
	popl	%ebp	#
	.cfi_restore 5
	leal	-4(%ecx), %esp	#,
	.cfi_def_cfa 4, 4
	ret
	.cfi_endproc
.LFE8172:
	.size	main, .-main
	.p2align 4,,15
	.type	_GLOBAL__sub_I_main, @function
_GLOBAL__sub_I_main:
.LFB9305:
	.loc 1 12 0
	.cfi_startproc
.LVL2:
	pushl	%esi	#
	.cfi_def_cfa_offset 8
	.cfi_offset 6, -8
	pushl	%ebx	#
	.cfi_def_cfa_offset 12
	.cfi_offset 3, -12
	call	__x86.get_pc_thunk.bx	#
	addl	$_GLOBAL_OFFSET_TABLE_, %ebx	# tmp87,
	subl	$16, %esp	#,
	.cfi_def_cfa_offset 28
.LBB4:
.LBB5:
	.file 2 "/usr/include/c++/6/iostream"
	.loc 2 74 0
	leal	_ZStL8__ioinit@GOTOFF(%ebx), %esi	#, tmp88
	pushl	%esi	# tmp88
	.cfi_def_cfa_offset 32
	call	_ZNSt8ios_base4InitC1Ev@PLT	#
.LVL3:
	leal	__dso_handle@GOTOFF(%ebx), %eax	#, tmp89
	addl	$12, %esp	#,
	.cfi_def_cfa_offset 20
	pushl	%eax	# tmp89
	.cfi_def_cfa_offset 24
	pushl	%esi	# tmp88
	.cfi_def_cfa_offset 28
	pushl	_ZNSt8ios_base4InitD1Ev@GOT(%ebx)	#
	.cfi_def_cfa_offset 32
	call	__cxa_atexit@PLT	#
.LVL4:
.LBE5:
.LBE4:
	.loc 1 12 0
	addl	$20, %esp	#,
	.cfi_def_cfa_offset 12
	popl	%ebx	#
	.cfi_restore 3
	.cfi_def_cfa_offset 8
	popl	%esi	#
	.cfi_restore 6
	.cfi_def_cfa_offset 4
	ret
	.cfi_endproc
.LFE9305:
	.size	_GLOBAL__sub_I_main, .-_GLOBAL__sub_I_main
	.section	.init_array,"aw"
	.align 4
	.long	_GLOBAL__sub_I_main
	.local	_ZStL8__ioinit
	.comm	_ZStL8__ioinit,1,1
	.section	.text.__x86.get_pc_thunk.bx,"axG",@progbits,__x86.get_pc_thunk.bx,comdat
	.globl	__x86.get_pc_thunk.bx
	.hidden	__x86.get_pc_thunk.bx
	.type	__x86.get_pc_thunk.bx, @function
__x86.get_pc_thunk.bx:
.LFB9306:
	.cfi_startproc
	movl	(%esp), %ebx	#,
	ret
	.cfi_endproc
.LFE9306:
	.text
.Letext0:
	.file 3 "/usr/include/c++/6/clocale"
	.file 4 "/usr/include/c++/6/cmath"
	.file 5 "/usr/include/c++/6/csetjmp"
	.file 6 "/usr/include/c++/6/csignal"
	.file 7 "/usr/include/c++/6/cstdarg"
	.file 8 "/usr/include/c++/6/cstddef"
	.file 9 "/usr/include/c++/6/cstdio"
	.file 10 "/usr/include/c++/6/cstdlib"
	.file 11 "/usr/include/c++/6/cstring"
	.file 12 "/usr/include/c++/6/ctime"
	.file 13 "/usr/include/c++/6/cwchar"
	.file 14 "/usr/include/c++/6/bits/exception_ptr.h"
	.file 15 "/usr/include/i386-linux-gnu/c++/6/bits/c++config.h"
	.file 16 "/usr/include/c++/6/type_traits"
	.file 17 "/usr/include/c++/6/bits/stl_pair.h"
	.file 18 "/usr/include/c++/6/debug/debug.h"
	.file 19 "/usr/include/c++/6/bits/char_traits.h"
	.file 20 "/usr/include/c++/6/cstdint"
	.file 21 "/usr/include/c++/6/new"
	.file 22 "/usr/include/c++/6/bits/basic_string.h"
	.file 23 "/usr/include/c++/6/complex"
	.file 24 "/usr/include/c++/6/chrono"
	.file 25 "/usr/include/c++/6/system_error"
	.file 26 "/usr/include/c++/6/bits/ios_base.h"
	.file 27 "/usr/include/c++/6/cwctype"
	.file 28 "/usr/include/c++/6/fenv.h"
	.file 29 "/usr/include/c++/6/cfenv"
	.file 30 "/usr/include/c++/6/cinttypes"
	.file 31 "/usr/include/c++/6/cuchar"
	.file 32 "/usr/include/c++/6/bits/algorithmfwd.h"
	.file 33 "/usr/include/c++/6/bits/stl_algo.h"
	.file 34 "/usr/include/c++/6/bits/uses_allocator.h"
	.file 35 "/usr/include/c++/6/tuple"
	.file 36 "/usr/include/c++/6/functional"
	.file 37 "/usr/include/c++/6/iosfwd"
	.file 38 "/usr/include/c++/6/bits/uniform_int_dist.h"
	.file 39 "/usr/include/c++/6/bits/regex_automaton.h"
	.file 40 "/usr/include/c++/6/bits/shared_ptr_base.h"
	.file 41 "/usr/include/c++/6/ratio"
	.file 42 "/usr/include/c++/6/bits/std_mutex.h"
	.file 43 "/usr/include/c++/6/condition_variable"
	.file 44 "/usr/include/c++/6/mutex"
	.file 45 "/usr/include/c++/6/bits/random.h"
	.file 46 "/usr/include/c++/6/bits/regex_constants.h"
	.file 47 "/usr/include/c++/6/bits/atomic_base.h"
	.file 48 "/usr/include/c++/6/bits/regex_error.h"
	.file 49 "/usr/include/c++/6/bits/predefined_ops.h"
	.file 50 "/usr/include/c++/6/ext/new_allocator.h"
	.file 51 "/usr/include/c++/6/ext/numeric_traits.h"
	.file 52 "/usr/include/c++/6/ext/concurrence.h"
	.file 53 "/usr/include/i386-linux-gnu/bits/types.h"
	.file 54 "/usr/include/errno.h"
	.file 55 "/usr/include/locale.h"
	.file 56 "/usr/include/i386-linux-gnu/bits/mathdef.h"
	.file 57 "/usr/include/math.h"
	.file 58 "/usr/include/i386-linux-gnu/bits/setjmp.h"
	.file 59 "/usr/include/i386-linux-gnu/bits/sigset.h"
	.file 60 "/usr/include/setjmp.h"
	.file 61 "/usr/include/signal.h"
	.file 62 "/usr/lib/gcc/i686-linux-gnu/6/include/stddef.h"
	.file 63 "/usr/lib/gcc/i686-linux-gnu/6/include/stdarg.h"
	.file 64 "/usr/include/stdio.h"
	.file 65 "/usr/include/libio.h"
	.file 66 "/usr/include/wchar.h"
	.file 67 "/usr/include/_G_config.h"
	.file 68 "/usr/include/i386-linux-gnu/bits/sys_errlist.h"
	.file 69 "/usr/include/i386-linux-gnu/bits/stdio.h"
	.file 70 "/usr/include/stdlib.h"
	.file 71 "/usr/include/time.h"
	.file 72 "/usr/include/i386-linux-gnu/sys/types.h"
	.file 73 "/usr/include/i386-linux-gnu/bits/stdlib-float.h"
	.file 74 "/usr/include/i386-linux-gnu/bits/stdlib-bsearch.h"
	.file 75 "/usr/include/string.h"
	.file 76 "/usr/include/stdint.h"
	.file 77 "/usr/include/i386-linux-gnu/c++/6/bits/atomic_word.h"
	.file 78 "/usr/include/wctype.h"
	.file 79 "/usr/include/i386-linux-gnu/bits/fenv.h"
	.file 80 "/usr/include/fenv.h"
	.file 81 "/usr/include/inttypes.h"
	.file 82 "/usr/include/uchar.h"
	.file 83 "<built-in>"
	.file 84 "/usr/include/c++/6/bits/ostream.tcc"
	.file 85 "/usr/include/c++/6/future"
	.section	.note.GNU-stack,"",@progbits
